target datalayout = "e-m:e-p270:32:32-p271:32:32-p272:64:64-i64:64-i128:128-f80:128-n8:16:32:64-S128"
target triple = "x86_64-pc-linux-gnu"

%class.ciExceptionHandler = type { ptr, i32, i32, i32, i32, ptr }

@tty = external global ptr, align 8
@.str = private unnamed_addr constant [71 x i8] c"<ciExceptionHandler start=%d limit=%d handler_bci=%d ex_klass_index=%d\00", align 1
@.str.4 = private unnamed_addr constant [11 x i8] c" ex_klass=\00", align 1
@.str.5 = private unnamed_addr constant [2 x i8] c">\00", align 1

; Function Attrs: mustprogress nounwind uwtable
define linkonce_odr hidden void @_ZN10ciMetadata5printEv(ptr noundef nonnull align 8 dereferenceable(24) %0) #1 comdat align 2 {
  %2 = alloca ptr, align 8
  store ptr %0, ptr %2, align 8
  %3 = load ptr, ptr %2, align 8
  %4 = load ptr, ptr @tty, align 8
  call void @_ZN10ciMetadata5printEP12outputStream(ptr noundef nonnull align 8 dereferenceable(24) %3, ptr noundef %4)
  ret void
}

; Function Attrs: mustprogress nounwind uwtable
define linkonce_odr hidden noundef i32 @_ZN18ciExceptionHandler17catch_klass_indexEv(ptr noundef nonnull align 8 dereferenceable(32) %0) #1 comdat align 2 {
  %2 = alloca ptr, align 8
  store ptr %0, ptr %2, align 8
  %3 = load ptr, ptr %2, align 8
  %4 = getelementptr inbounds %class.ciExceptionHandler, ptr %3, i32 0, i32 4
  %5 = load i32, ptr %4, align 4
  ret i32 %5
}

; Function Attrs: mustprogress nounwind uwtable
define linkonce_odr hidden noundef i32 @_ZN18ciExceptionHandler11handler_bciEv(ptr noundef nonnull align 8 dereferenceable(32) %0) #1 comdat align 2 {
  %2 = alloca ptr, align 8
  store ptr %0, ptr %2, align 8
  %3 = load ptr, ptr %2, align 8
  %4 = getelementptr inbounds %class.ciExceptionHandler, ptr %3, i32 0, i32 3
  %5 = load i32, ptr %4, align 8
  ret i32 %5
}

; Function Attrs: mustprogress nounwind uwtable
define linkonce_odr hidden noundef i32 @_ZN18ciExceptionHandler5limitEv(ptr noundef nonnull align 8 dereferenceable(32) %0) #1 comdat align 2 {
  %2 = alloca ptr, align 8
  store ptr %0, ptr %2, align 8
  %3 = load ptr, ptr %2, align 8
  %4 = getelementptr inbounds %class.ciExceptionHandler, ptr %3, i32 0, i32 2
  %5 = load i32, ptr %4, align 4
  ret i32 %5
}

; Function Attrs: mustprogress nounwind uwtable
define linkonce_odr hidden noundef i32 @_ZN18ciExceptionHandler5startEv(ptr noundef nonnull align 8 dereferenceable(32) %0) #1 comdat align 2 {
  %2 = alloca ptr, align 8
  store ptr %0, ptr %2, align 8
  %3 = load ptr, ptr %2, align 8
  %4 = getelementptr inbounds %class.ciExceptionHandler, ptr %3, i32 0, i32 1
  %5 = load i32, ptr %4, align 8
  ret i32 %5
}

; Function Attrs: mustprogress nounwind uwtable
define hidden void @_ZN18ciExceptionHandler5printEv(ptr noundef nonnull align 8 dereferenceable(32) %0) #1 align 2 {
  %2 = alloca ptr, align 8
  store ptr %0, ptr %2, align 8
  %3 = load ptr, ptr %2, align 8
  %4 = load ptr, ptr @tty, align 8
  %5 = call noundef i32 @_ZN18ciExceptionHandler5startEv(ptr noundef nonnull align 8 dereferenceable(32) %3)
  %6 = call noundef i32 @_ZN18ciExceptionHandler5limitEv(ptr noundef nonnull align 8 dereferenceable(32) %3)
  %7 = call noundef i32 @_ZN18ciExceptionHandler11handler_bciEv(ptr noundef nonnull align 8 dereferenceable(32) %3)
  %8 = call noundef i32 @_ZN18ciExceptionHandler17catch_klass_indexEv(ptr noundef nonnull align 8 dereferenceable(32) %3)
  call void (ptr, ptr, ...) @_ZN12outputStream5printEPKcz(ptr noundef nonnull align 8 dereferenceable(56) %4, ptr noundef @.str, i32 noundef %5, i32 noundef %6, i32 noundef %7, i32 noundef %8)
  %9 = getelementptr inbounds %class.ciExceptionHandler, ptr %3, i32 0, i32 5
  %10 = load ptr, ptr %9, align 8
  %11 = icmp ne ptr %10, null
  br i1 %11, label %12, label %16

12:                                               ; preds = %1
  %13 = load ptr, ptr @tty, align 8
  call void (ptr, ptr, ...) @_ZN12outputStream5printEPKcz(ptr noundef nonnull align 8 dereferenceable(56) %13, ptr noundef @.str.4)
  %14 = getelementptr inbounds %class.ciExceptionHandler, ptr %3, i32 0, i32 5
  %15 = load ptr, ptr %14, align 8
  call void @_ZN10ciMetadata5printEv(ptr noundef nonnull align 8 dereferenceable(24) %15)
  br label %16

16:                                               ; preds = %12, %1
  %17 = load ptr, ptr @tty, align 8
  call void (ptr, ptr, ...) @_ZN12outputStream5printEPKcz(ptr noundef nonnull align 8 dereferenceable(56) %17, ptr noundef @.str.5)
  ret void
}